; Function Attrs: nounwind uwtable
define void @Gia_ManFraStop(ptr noundef %0) local_unnamed_addr #0 {
  %2 = getelementptr inbounds nuw i8, ptr %0, i64 16
  %3 = load ptr, ptr %2, align 8, !tbaa !94
  %4 = getelementptr i8, ptr %3, i64 4
  %.val11.i = load i32, ptr %4, align 4, !tbaa !95
  %5 = icmp sgt i32 %.val11.i, 0
  br i1 %5, label %.lr.ph.i, label %.critedge.i

.lr.ph.i:                                         ; preds = %1
  %6 = getelementptr i8, ptr %3, i64 8
  br label %7

7:                                                ; preds = %14, %.lr.ph.i
  %.val14.i = phi i32 [ %.val11.i, %.lr.ph.i ], [ %.val.i, %14 ]
  %indvars.iv.i = phi i64 [ 0, %.lr.ph.i ], [ %indvars.iv.next.i, %14 ]
  %.val8.i = load ptr, ptr %6, align 8, !tbaa !97
  %8 = getelementptr inbounds nuw ptr, ptr %.val8.i, i64 %indvars.iv.i
  %9 = load ptr, ptr %8, align 8, !tbaa !53
  %.not.i = icmp eq ptr %9, null
  br i1 %.not.i, label %14, label %10

10:                                               ; preds = %7
  %11 = getelementptr inbounds nuw i8, ptr %9, i64 8
  %12 = load ptr, ptr %11, align 8, !tbaa !50
  %.not.i.i = icmp eq ptr %12, null
  br i1 %.not.i.i, label %Vec_PtrFree.exit.i, label %13

13:                                               ; preds = %10
  tail call void @free(ptr noundef nonnull %12) #23
  br label %Vec_PtrFree.exit.i

Vec_PtrFree.exit.i:                               ; preds = %13, %10
  tail call void @free(ptr noundef nonnull %9) #23
  %.val.pre.i = load i32, ptr %4, align 4, !tbaa !95
  br label %14

14:                                               ; preds = %Vec_PtrFree.exit.i, %7
  %.val.i = phi i32 [ %.val14.i, %7 ], [ %.val.pre.i, %Vec_PtrFree.exit.i ]
  %indvars.iv.next.i = add nuw nsw i64 %indvars.iv.i, 1
  %15 = sext i32 %.val.i to i64
  %16 = icmp slt i64 %indvars.iv.next.i, %15
  br i1 %16, label %7, label %.critedge.i, !llvm.loop !98

.critedge.i:                                      ; preds = %14, %1
  %17 = getelementptr inbounds nuw i8, ptr %3, i64 8
  %18 = load ptr, ptr %17, align 8, !tbaa !50
  %.not.i9.i = icmp eq ptr %18, null
  br i1 %.not.i9.i, label %Vec_VecFree.exit, label %19

19:                                               ; preds = %.critedge.i
  tail call void @free(ptr noundef nonnull %18) #23
  br label %Vec_VecFree.exit

Vec_VecFree.exit:                                 ; preds = %.critedge.i, %19
  tail call void @free(ptr noundef nonnull %3) #23
  %20 = getelementptr inbounds nuw i8, ptr %0, i64 24
  %21 = load ptr, ptr %20, align 8, !tbaa !99
  %22 = getelementptr i8, ptr %21, i64 4
  %.val11.i5 = load i32, ptr %22, align 4, !tbaa !95
  %23 = icmp sgt i32 %.val11.i5, 0
  br i1 %23, label %.lr.ph.i8, label %.critedge.i6

.lr.ph.i8:                                        ; preds = %Vec_VecFree.exit
  %24 = getelementptr i8, ptr %21, i64 8
  br label %25

25:                                               ; preds = %32, %.lr.ph.i8
  %.val14.i9 = phi i32 [ %.val11.i5, %.lr.ph.i8 ], [ %.val.i16, %32 ]
  %indvars.iv.i10 = phi i64 [ 0, %.lr.ph.i8 ], [ %indvars.iv.next.i17, %32 ]
  %.val8.i11 = load ptr, ptr %24, align 8, !tbaa !97
  %26 = getelementptr inbounds nuw ptr, ptr %.val8.i11, i64 %indvars.iv.i10
  %27 = load ptr, ptr %26, align 8, !tbaa !53
  %.not.i12 = icmp eq ptr %27, null
  br i1 %.not.i12, label %32, label %28

28:                                               ; preds = %25
  %29 = getelementptr inbounds nuw i8, ptr %27, i64 8
  %30 = load ptr, ptr %29, align 8, !tbaa !50
  %.not.i.i13 = icmp eq ptr %30, null
  br i1 %.not.i.i13, label %Vec_PtrFree.exit.i14, label %31

31:                                               ; preds = %28
  tail call void @free(ptr noundef nonnull %30) #23
  br label %Vec_PtrFree.exit.i14

Vec_PtrFree.exit.i14:                             ; preds = %31, %28
  tail call void @free(ptr noundef nonnull %27) #23
  %.val.pre.i15 = load i32, ptr %22, align 4, !tbaa !95
  br label %32

32:                                               ; preds = %Vec_PtrFree.exit.i14, %25
  %.val.i16 = phi i32 [ %.val14.i9, %25 ], [ %.val.pre.i15, %Vec_PtrFree.exit.i14 ]
  %indvars.iv.next.i17 = add nuw nsw i64 %indvars.iv.i10, 1
  %33 = sext i32 %.val.i16 to i64
  %34 = icmp slt i64 %indvars.iv.next.i17, %33
  br i1 %34, label %25, label %.critedge.i6, !llvm.loop !98

.critedge.i6:                                     ; preds = %32, %Vec_VecFree.exit
  %35 = getelementptr inbounds nuw i8, ptr %21, i64 8
  %36 = load ptr, ptr %35, align 8, !tbaa !50
  %.not.i9.i7 = icmp eq ptr %36, null
  br i1 %.not.i9.i7, label %Vec_VecFree.exit18, label %37

37:                                               ; preds = %.critedge.i6
  tail call void @free(ptr noundef nonnull %36) #23
  br label %Vec_VecFree.exit18

Vec_VecFree.exit18:                               ; preds = %.critedge.i6, %37
  tail call void @free(ptr noundef nonnull %21) #23
  %38 = getelementptr inbounds nuw i8, ptr %0, i64 32
  %39 = load ptr, ptr %38, align 8, !tbaa !100
  %40 = getelementptr i8, ptr %39, i64 4
  %.val11.i19 = load i32, ptr %40, align 4, !tbaa !95
  %41 = icmp sgt i32 %.val11.i19, 0
  br i1 %41, label %.lr.ph.i22, label %.critedge.i20

.lr.ph.i22:                                       ; preds = %Vec_VecFree.exit18
  %42 = getelementptr i8, ptr %39, i64 8
  br label %43

43:                                               ; preds = %50, %.lr.ph.i22
  %.val14.i23 = phi i32 [ %.val11.i19, %.lr.ph.i22 ], [ %.val.i30, %50 ]
  %indvars.iv.i24 = phi i64 [ 0, %.lr.ph.i22 ], [ %indvars.iv.next.i31, %50 ]
  %.val8.i25 = load ptr, ptr %42, align 8, !tbaa !97
  %44 = getelementptr inbounds nuw ptr, ptr %.val8.i25, i64 %indvars.iv.i24
  %45 = load ptr, ptr %44, align 8, !tbaa !53
  %.not.i26 = icmp eq ptr %45, null
  br i1 %.not.i26, label %50, label %46

46:                                               ; preds = %43
  %47 = getelementptr inbounds nuw i8, ptr %45, i64 8
  %48 = load ptr, ptr %47, align 8, !tbaa !50
  %.not.i.i27 = icmp eq ptr %48, null
  br i1 %.not.i.i27, label %Vec_PtrFree.exit.i28, label %49

49:                                               ; preds = %46
  tail call void @free(ptr noundef nonnull %48) #23
  br label %Vec_PtrFree.exit.i28

Vec_PtrFree.exit.i28:                             ; preds = %49, %46
  tail call void @free(ptr noundef nonnull %45) #23
  %.val.pre.i29 = load i32, ptr %40, align 4, !tbaa !95
  br label %50

50:                                               ; preds = %Vec_PtrFree.exit.i28, %43
  %.val.i30 = phi i32 [ %.val14.i23, %43 ], [ %.val.pre.i29, %Vec_PtrFree.exit.i28 ]
  %indvars.iv.next.i31 = add nuw nsw i64 %indvars.iv.i24, 1
  %51 = sext i32 %.val.i30 to i64
  %52 = icmp slt i64 %indvars.iv.next.i31, %51
  br i1 %52, label %43, label %.critedge.i20, !llvm.loop !98

.critedge.i20:                                    ; preds = %50, %Vec_VecFree.exit18
  %53 = getelementptr inbounds nuw i8, ptr %39, i64 8
  %54 = load ptr, ptr %53, align 8, !tbaa !50
  %.not.i9.i21 = icmp eq ptr %54, null
  br i1 %.not.i9.i21, label %Vec_VecFree.exit32, label %55

55:                                               ; preds = %.critedge.i20
  tail call void @free(ptr noundef nonnull %54) #23
  br label %Vec_VecFree.exit32

Vec_VecFree.exit32:                               ; preds = %.critedge.i20, %55
  tail call void @free(ptr noundef nonnull %39) #23
  %.not = icmp eq ptr %0, null
  br i1 %.not, label %57, label %56

56:                                               ; preds = %Vec_VecFree.exit32
  tail call void @free(ptr noundef nonnull %0) #23
  br label %57

57:                                               ; preds = %Vec_VecFree.exit32, %56
  ret void
}